ccopy_reg
_reconstructor
p0
(cnetworkx.classes.digraph
DiGraph
p1
c__builtin__
object
p2
Ntp3
Rp4
(dp5
S'adjlist_inner_dict_factory'
p6
c__builtin__
dict
p7
sS'node_dict_factory'
p8
g7
sS'edge_attr_dict_factory'
p9
g7
sS'_node'
p10
(dp11
S'pii'
p12
(dp13
S'weight'
p14
I685
ssS'user information'
p15
(dp16
g14
I149
ssS'registration information'
p17
(dp18
g14
I246
ssS'shipping information'
p19
(dp20
g14
I8
ssS'photo metadata'
p21
(dp22
g14
I16
ssVcustomer information
p23
(dp24
g14
I53
ssVguid
p25
(dp26
g14
I1
ssS'information'
p27
(dp28
g14
I2193
ssValtitude
p29
(dp30
g14
I1
ssS'account information'
p31
(dp32
g14
I93
ssS'device identifier'
p33
(dp34
g14
I222
ssS'network information'
p35
(dp36
g14
I5
ssS'billing information'
p37
(dp38
g14
I115
ssS'serial number'
p39
(dp40
g14
I3
ssS'geographical location'
p41
(dp42
g14
I388
ssS'technical information'
p43
(dp44
sVdevice sensor information
p45
(dp46
g14
I1
ssS'gsfid'
p47
(dp48
sS'email address'
p49
(dp50
g14
I1601
ssS'demographic information'
p51
(dp52
g14
I57
ssVapplication instal
p53
(dp54
g14
I3
ssS'advertising identifier'
p55
(dp56
sS'phone number'
p57
(dp58
g14
I723
ssS'contact information'
p59
(dp60
g14
I535
ssVimei
p61
(dp62
g14
I3
ssS'sim serial number'
p63
(dp64
sS'profile information'
p65
(dp66
g14
I148
ssS'non-pii'
p67
(dp68
g14
I47
ssS'mac address'
p69
(dp70
g14
I42
ssVandroid id
p71
(dp72
g14
I8
ssS'information about you'
p73
(dp74
g14
I300
ssS'person name'
p75
(dp76
g14
I571
ssS'device information'
p77
(dp78
g14
I227
ssS'router ssid'
p79
(dp80
sS'usage information'
p81
(dp82
g14
I205
ssVtracking information
p83
(dp84
g14
I3
ssS'identifier'
p85
(dp86
g14
I108
ssVarea code
p87
(dp88
g14
I13
sssS'graph'
p89
(dp90
sS'root_graph'
p91
g4
sS'_pred'
p92
(dp93
g12
(dp94
g73
(dp95
g14
I23
sssg15
(dp96
S'information about you'
p97
(dp98
ssg17
(dp99
S'account information'
p100
(dp101
ssg19
(dp102
g31
(dp103
g14
I6
sssg21
(dp104
S'device information'
p105
(dp106
ssg23
(dp107
S'information about you'
p108
(dp109
ssg25
(dp110
g33
(dp111
g14
I1
sssg27
(dp112
sg29
(dp113
g45
(dp114
g14
I1
sssg31
(dp115
g12
(dp116
g14
I7
sssg33
(dp117
g12
(dp118
g14
I21
ssg77
(dp119
g14
I16
ssg85
(dp120
g14
I6
sssg35
(dp121
S'device information'
p122
(dp123
ssg37
(dp124
S'account information'
p125
(dp126
sg17
(dp127
g14
I1
sssg39
(dp128
S'device identifier'
p129
(dp130
ssg41
(dp131
g12
(dp132
g14
I27
ssg65
(dp133
g14
I33
ssg15
(dp134
g14
I2
ssg51
(dp135
g14
I1
ssg31
(dp136
g14
I2
ssg21
(dp137
g14
I8
ssg77
(dp138
g14
I3
ssg81
(dp139
g14
I14
ssS'device sensor information'
p140
(dp141
ssg43
(dp142
S'information'
p143
(dp144
ssg45
(dp145
S'device information'
p146
(dp147
ssg47
(dp148
S'device identifier'
p149
(dp150
ssg49
(dp151
g77
(dp152
g14
I4
ssg85
(dp153
g14
I12
ssS'contact information'
p154
(dp155
g14
I291
sssg51
(dp156
g15
(dp157
g14
I1
ssS'information about you'
p158
(dp159
ssg53
(dp160
g77
(dp161
g14
I3
ssS'non-pii'
p162
(dp163
ssg55
(dp164
S'device identifier'
p165
(dp166
ssg57
(dp167
g154
(dp168
g14
I175
ssg33
(dp169
g14
I1
sssg59
(dp170
g12
(dp171
g14
I8
ssg65
(dp172
g14
I2
ssS'user information'
p173
(dp174
sg17
(dp175
g14
I3
ssS'account information'
p176
(dp177
sS'shipping information'
p178
(dp179
sS'billing information'
p180
(dp181
sS'customer information'
p182
(dp183
ssg61
(dp184
S'device identifier'
p185
(dp186
ssg63
(dp187
S'device identifier'
p188
(dp189
ssg65
(dp190
S'information about you'
p191
(dp192
ssg67
(dp193
S'information about you'
p194
(dp195
ssg69
(dp196
g33
(dp197
g14
I12
ssg35
(dp198
g14
I2
sssg71
(dp199
S'device identifier'
p200
(dp201
ssg73
(dp202
Vinformation
p203
(dp204
ssg75
(dp205
g154
(dp206
g14
I87
sssg77
(dp207
g43
(dp208
ssg79
(dp209
S'network information'
p210
(dp211
ssg81
(dp212
S'information about you'
p213
(dp214
ssg83
(dp215
S'pii'
p216
(dp217
ssg85
(dp218
S'tracking information'
p219
(dp220
sg12
(dp221
g14
I3
sssg87
(dp222
S'phone number'
p223
(dp224
sssS'_succ'
p225
(dp226
g12
(dp227
g31
g116
sg33
g118
sg59
g171
sg41
g132
sS'tracking information'
p228
g217
sg85
g221
ssg15
(dp229
g51
g157
sg41
g134
sS'contact information'
p230
g174
ssg17
(dp231
g37
g127
sg154
g175
ssg19
(dp232
S'contact information'
p233
g179
ssg21
(dp234
g41
g137
ssg23
(dp235
S'contact information'
p236
g183
ssg25
(dp237
sg27
(dp238
g73
g204
sg43
g144
ssg29
(dp239
sg31
(dp240
S'billing information'
p241
g126
sg19
g103
sS'registration information'
p242
g101
sg41
g136
sS'contact information'
p243
g177
ssg33
(dp244
g69
g197
sg55
g166
sS'android id'
p245
g201
sg57
g169
sg63
g189
sS'serial number'
p246
g130
sS'imei'
p247
g186
sg25
g111
sg47
g150
ssg35
(dp248
g79
g211
sg69
g198
ssg37
(dp249
S'contact information'
p250
g181
ssg39
(dp251
sg41
(dp252
sg43
(dp253
S'device information'
p254
g208
ssg45
(dp255
g29
g114
sS'geographical location'
p256
g141
ssg47
(dp257
sg49
(dp258
sg51
(dp259
g41
g135
ssg53
(dp260
sg55
(dp261
sg57
(dp262
S'area code'
p263
g224
ssg59
(dp264
g57
g168
sg49
g155
sg75
g206
ssg61
(dp265
sg63
(dp266
sg65
(dp267
g59
g172
sg41
g133
ssg67
(dp268
S'application instal'
p269
g163
ssg69
(dp270
sg71
(dp271
sg73
(dp272
g12
g95
sS'profile information'
p273
g192
sS'user information'
p274
g98
sS'usage information'
p275
g214
sS'demographic information'
p276
g159
sS'customer information'
p277
g109
sS'non-pii'
p278
g195
ssg75
(dp279
sg77
(dp280
g49
g152
sg53
g161
sS'photo metadata'
p281
g106
sg33
g119
sS'network information'
p282
g123
sg41
g138
sS'device sensor information'
p283
g147
ssg79
(dp284
sg81
(dp285
g41
g139
ssg83
(dp286
S'identifier'
p287
g220
ssg85
(dp288
g49
g153
sg33
g120
ssg87
(dp289
ssS'_adj'
p290
g226
sS'adjlist_outer_dict_factory'
p291
g7
sb.
