ccopy_reg
_reconstructor
p0
(cnetworkx.classes.digraph
DiGraph
p1
c__builtin__
object
p2
Ntp3
Rp4
(dp5
S'adjlist_inner_dict_factory'
p6
c__builtin__
dict
p7
sS'node_dict_factory'
p8
g7
sS'edge_attr_dict_factory'
p9
g7
sS'_node'
p10
(dp11
S'digital turbine'
p12
(dp13
sS'mixpanel'
p14
(dp15
sS'pollfish'
p16
(dp17
sS'google analytic'
p18
(dp19
S'weight'
p20
I12
ssS'adpopcorn'
p21
(dp22
sS'social network'
p23
(dp24
sS'vdopia'
p25
(dp26
sVsubsidiary
p27
(dp28
g20
I66
ssS'mobeleader'
p29
(dp30
sS'fractional media'
p31
(dp32
sS'komli mobile / zestadz'
p33
(dp34
sS'liverail'
p35
(dp36
sS'tapcore'
p37
(dp38
sS'leadbolt'
p39
(dp40
sS'appnexus'
p41
(dp42
sS'advertising network'
p43
(dp44
sS'adbrix'
p45
(dp46
sS'tapsense'
p47
(dp48
sS'madserve'
p49
(dp50
sS'youappi'
p51
(dp52
sS'axonix'
p53
(dp54
sS'mobvista'
p55
(dp56
sS'mobclix'
p57
(dp58
sS'amazon ads'
p59
(dp60
sS'optimizely'
p61
(dp62
sS'talkingdata'
p63
(dp64
sS'adbuddiz'
p65
(dp66
sS'adiquity'
p67
(dp68
sS'medialets'
p69
(dp70
sS'facebook'
p71
(dp72
sS'airpush'
p73
(dp74
sS'du'
p75
(dp76
sS'swelen'
p77
(dp78
sS'pubnative'
p79
(dp80
sS'adlib'
p81
(dp82
sS'admarvel'
p83
(dp84
sS'madmobile'
p85
(dp86
sS'braze'
p87
(dp88
sS'analytic provider'
p89
(dp90
g20
I87
ssS'cordova google analytics plugin'
p91
(dp92
sS'adjust'
p93
(dp94
sVnews provider
p95
(dp96
g20
I2
ssS'flatiron media'
p97
(dp98
sS'hunt mobile ads'
p99
(dp100
sS'google'
p101
(dp102
sVinstagram
p103
(dp104
g20
I15
ssS'twitter'
p105
(dp106
sS'webtrends mobile'
p107
(dp108
sS'getjar'
p109
(dp110
sS'mobpartner'
p111
(dp112
sS'google ads'
p113
(dp114
g20
I8
ssVadobe marketing cloud
p115
(dp116
g20
I1
ssS'jumptap'
p117
(dp118
sS'senddroid'
p119
(dp120
sS'heyzap'
p121
(dp122
sS'integral ad science'
p123
(dp124
sS'appnext'
p125
(dp126
sS'first party'
p127
(dp128
sS'amoad'
p129
(dp130
sS'appsfire'
p131
(dp132
sS'moolah media'
p133
(dp134
sS'gameanalytics'
p135
(dp136
sS'taboola'
p137
(dp138
sS'new relic mobile'
p139
(dp140
sS'adsage'
p141
(dp142
sS'ampiri'
p143
(dp144
sS'mytarget'
p145
(dp146
sS'we'
p147
(dp148
sS'waps'
p149
(dp150
sS'yume'
p151
(dp152
sS'freewheel'
p153
(dp154
sS'vpon'
p155
(dp156
sS'tapjoy'
p157
(dp158
sS'airad'
p159
(dp160
sS'conversant'
p161
(dp162
sS'adflex'
p163
(dp164
sVfirebase
p165
(dp166
g20
I1
ssS'inmobi'
p167
(dp168
sS'appodeal'
p169
(dp170
sS'tap for tap'
p171
(dp172
sS'yandex metrica'
p173
(dp174
sS'display.io'
p175
(dp176
sS'mocean'
p177
(dp178
sS'apptimize'
p179
(dp180
sS'tapdaq'
p181
(dp182
sS'wooboo'
p183
(dp184
sS'startapp'
p185
(dp186
sS'mobilecore'
p187
(dp188
sS'appsee'
p189
(dp190
sS'madhouse smartmad'
p191
(dp192
sS'adcolony'
p193
(dp194
sS'youmi'
p195
(dp196
sS'applifier'
p197
(dp198
sS'phunware advertising'
p199
(dp200
sS'revmob'
p201
(dp202
sS'mediba ad'
p203
(dp204
sS'byyd'
p205
(dp206
sS'lifestreet'
p207
(dp208
sS'apsalar'
p209
(dp210
sS'cauly ads'
p211
(dp212
sS'nend'
p213
(dp214
sS'chartboost'
p215
(dp216
sS'adwhirl'
p217
(dp218
sS'rhythm premium mobile video advertising'
p219
(dp220
sS'mopub'
p221
(dp222
sS'third party payment processor'
p223
(dp224
g20
I30
ssS'sponsorpay'
p225
(dp226
sS'daum ads'
p227
(dp228
sS'mobwin'
p229
(dp230
sS'anyone'
p231
(dp232
sVcontent provider
p233
(dp234
g20
I8
ssS'nexage'
p235
(dp236
sS'openx'
p237
(dp238
sS'adlantis'
p239
(dp240
sS'tenjin'
p241
(dp242
sS'moat'
p243
(dp244
sS'millennial media'
p245
(dp246
sS'website'
p247
(dp248
g20
I739
ssS'aerserv'
p249
(dp250
sS'fyber'
p251
(dp252
sS'ogury'
p253
(dp254
sS'verizon'
p255
(dp256
sVadobe application measurement for android
p257
(dp258
sS'splunk mint'
p259
(dp260
sS'wiyun'
p261
(dp262
sS'adwo'
p263
(dp264
sS'buzzcity'
p265
(dp266
sS'video intelligence'
p267
(dp268
sS'cuebiq'
p269
(dp270
sS'tappx'
p271
(dp272
sS'pocket change'
p273
(dp274
sS'quantcast'
p275
(dp276
sS'leanplum'
p277
(dp278
sS'upsight'
p279
(dp280
sS'cheetah mobile'
p281
(dp282
sS'mobfox'
p283
(dp284
sS'kuguo'
p285
(dp286
sS'metaps'
p287
(dp288
sS'ligatus'
p289
(dp290
sS'domob'
p291
(dp292
sS'taplytics'
p293
(dp294
sS'localytics'
p295
(dp296
sS'nativex'
p297
(dp298
sS'amplitude'
p299
(dp300
sS'bee7'
p301
(dp302
sS'quattro wireless ads'
p303
(dp304
sS'mobileapptracking'
p305
(dp306
sVgoogle doubleclick
p307
(dp308
g20
I2
ssS'tnk'
p309
(dp310
sS'madvertise'
p311
(dp312
sS'ironsource'
p313
(dp314
sS'inneractive'
p315
(dp316
sS'umeng'
p317
(dp318
sS'clevertap'
p319
(dp320
sS'receptiv'
p321
(dp322
sS'avocarrot'
p323
(dp324
sS'nielsen'
p325
(dp326
sS'noquosh adfalcon'
p327
(dp328
sS'calldorado'
p329
(dp330
sS'oneaudience'
p331
(dp332
sS'tapit'
p333
(dp334
sS'appdriver'
p335
(dp336
sS'appbrain sdk'
p337
(dp338
sS'kochava'
p339
(dp340
sS'adstir'
p341
(dp342
sS'marketo mobile'
p343
(dp344
sS'outbrain'
p345
(dp346
sVcrashlytics
p347
(dp348
g20
I2
ssS'unity'
p349
(dp350
sS'comscore analytics'
p351
(dp352
sS'branch'
p353
(dp354
sS'countly'
p355
(dp356
sS'krux'
p357
(dp358
sS'adpindle mobile ad network'
p359
(dp360
sS'silvermob'
p361
(dp362
sS'adsmogo'
p363
(dp364
sS'tapcontext'
p365
(dp366
sS'burstly'
p367
(dp368
sS'hyprmx'
p369
(dp370
sVflurry analytics
p371
(dp372
sS'smart adserver'
p373
(dp374
sS'kiip'
p375
(dp376
sS'liquidm'
p377
(dp378
sS'smaato'
p379
(dp380
sS'kidoz'
p381
(dp382
sS'flurry'
p383
(dp384
sS'applovin'
p385
(dp386
sS'wapstart.plus1'
p387
(dp388
sS'mdotm'
p389
(dp390
sS'segment'
p391
(dp392
sS'bugsense'
p393
(dp394
sS'sdk'
p395
(dp396
sS'vserv'
p397
(dp398
sS'applause'
p399
(dp400
sS'revenuecat'
p401
(dp402
sS'appsflyer'
p403
(dp404
sS'verve'
p405
(dp406
sS'bing'
p407
(dp408
sVyoutube
p409
(dp410
g20
I22
ssS'amazon'
p411
(dp412
sS'corona'
p413
(dp414
sS'third party'
p415
(dp416
g20
I56
ssS'adknowledge super rewards'
p417
(dp418
sVsearch engine
p419
(dp420
g20
I2
ssS'vungle'
p421
(dp422
sVadobe analytics
p423
(dp424
g20
I3
ssS'adad'
p425
(dp426
sS'microsoft'
p427
(dp428
sS'mediba admaker'
p429
(dp430
ssS'graph'
p431
(dp432
sS'root_graph'
p433
g4
sS'_pred'
p434
(dp435
g12
(dp436
S'advertising network'
p437
(dp438
ssg14
(dp439
S'analytic provider'
p440
(dp441
ssg16
(dp442
g437
(dp443
ssg18
(dp444
g89
(dp445
g20
I7
ssg101
(dp446
ssg21
(dp447
g437
(dp448
ssg23
(dp449
S'website'
p450
(dp451
ssg25
(dp452
g437
(dp453
ssg27
(dp454
S'third party'
p455
(dp456
ssg29
(dp457
g437
(dp458
ssg31
(dp459
g437
(dp460
ssg33
(dp461
g437
(dp462
ssg35
(dp463
g437
(dp464
ssg37
(dp465
g437
(dp466
ssg39
(dp467
g437
(dp468
ssg41
(dp469
g437
(dp470
ssg43
(dp471
S'content provider'
p472
(dp473
sS'third party'
p474
(dp475
ssg45
(dp476
g440
(dp477
ssg47
(dp478
g437
(dp479
ssg49
(dp480
g437
(dp481
ssg51
(dp482
g437
(dp483
ssg53
(dp484
g437
(dp485
ssg55
(dp486
g440
(dp487
sg437
(dp488
ssg57
(dp489
g437
(dp490
ssg59
(dp491
g411
(dp492
sS'advertising network'
p493
(dp494
ssg61
(dp495
g440
(dp496
ssg63
(dp497
g440
(dp498
ssg65
(dp499
g437
(dp500
ssg67
(dp501
g437
(dp502
ssg69
(dp503
g437
(dp504
ssg71
(dp505
S'analytic provider'
p506
(dp507
sS'social network'
p508
(dp509
sg493
(dp510
ssg73
(dp511
g437
(dp512
ssg75
(dp513
g437
(dp514
ssg77
(dp515
g437
(dp516
ssg79
(dp517
g437
(dp518
ssg81
(dp519
g437
(dp520
ssg83
(dp521
g437
(dp522
ssg85
(dp523
g437
(dp524
ssg87
(dp525
g440
(dp526
ssg89
(dp527
g455
(dp528
ssg91
(dp529
g440
(dp530
ssg93
(dp531
S'analytic provider'
p532
(dp533
sg437
(dp534
ssg95
(dp535
Vcontent provider
p536
(dp537
g20
I1
sssg97
(dp538
g437
(dp539
ssg99
(dp540
g437
(dp541
ssg101
(dp542
S'analytic provider'
p543
(dp544
sS'search engine'
p545
(dp546
sg493
(dp547
ssg103
(dp548
g71
(dp549
sS'social network'
p550
(dp551
ssg105
(dp552
S'social network'
p553
(dp554
ssg107
(dp555
g440
(dp556
ssg109
(dp557
g437
(dp558
ssg111
(dp559
g437
(dp560
ssg113
(dp561
g101
(dp562
sg493
(dp563
ssg115
(dp564
g493
(dp565
ssg117
(dp566
g437
(dp567
ssg119
(dp568
g437
(dp569
ssg121
(dp570
g437
(dp571
ssg123
(dp572
g437
(dp573
ssg125
(dp574
g437
(dp575
ssg127
(dp576
g231
(dp577
ssg129
(dp578
g437
(dp579
ssg131
(dp580
g437
(dp581
ssg133
(dp582
g437
(dp583
ssg135
(dp584
g440
(dp585
ssg137
(dp586
g437
(dp587
ssg139
(dp588
g440
(dp589
ssg141
(dp590
g437
(dp591
ssg143
(dp592
g437
(dp593
ssg145
(dp594
g437
(dp595
ssg147
(dp596
S'first party'
p597
(dp598
ssg149
(dp599
g437
(dp600
ssg151
(dp601
g437
(dp602
ssg153
(dp603
g437
(dp604
ssg155
(dp605
g437
(dp606
ssg157
(dp607
g493
(dp608
ssg159
(dp609
g437
(dp610
ssg161
(dp611
g437
(dp612
ssg163
(dp613
g437
(dp614
ssg165
(dp615
g89
(dp616
g20
I1
ssg101
(dp617
ssg167
(dp618
g437
(dp619
ssg169
(dp620
g437
(dp621
ssg171
(dp622
g437
(dp623
ssg173
(dp624
g440
(dp625
ssg175
(dp626
g437
(dp627
ssg177
(dp628
g437
(dp629
ssg179
(dp630
g440
(dp631
ssg181
(dp632
g437
(dp633
ssg183
(dp634
g437
(dp635
ssg185
(dp636
g437
(dp637
ssg187
(dp638
g437
(dp639
ssg189
(dp640
g440
(dp641
ssg191
(dp642
g437
(dp643
ssg193
(dp644
g493
(dp645
ssg195
(dp646
g437
(dp647
ssg197
(dp648
S'unity'
p649
(dp650
sg437
(dp651
ssg199
(dp652
g437
(dp653
ssg201
(dp654
g437
(dp655
ssg203
(dp656
g437
(dp657
ssg205
(dp658
g437
(dp659
ssg207
(dp660
g437
(dp661
ssg209
(dp662
g440
(dp663
ssg211
(dp664
g437
(dp665
ssg213
(dp666
g437
(dp667
ssg215
(dp668
g437
(dp669
ssg217
(dp670
g437
(dp671
ssg219
(dp672
g437
(dp673
ssg221
(dp674
S'analytic provider'
p675
(dp676
sg105
(dp677
sg493
(dp678
ssg223
(dp679
g415
(dp680
g20
I13
sssg225
(dp681
g437
(dp682
ssg227
(dp683
g437
(dp684
ssg229
(dp685
g437
(dp686
ssg231
(dp687
sg233
(dp688
S'third party'
p689
(dp690
ssg235
(dp691
g437
(dp692
ssg237
(dp693
g437
(dp694
ssg239
(dp695
g437
(dp696
ssg241
(dp697
g440
(dp698
sg437
(dp699
ssg243
(dp700
g440
(dp701
ssg245
(dp702
g437
(dp703
ssg247
(dp704
S'content provider'
p705
(dp706
ssg249
(dp707
g437
(dp708
ssg251
(dp709
g437
(dp710
ssg253
(dp711
g440
(dp712
sg437
(dp713
ssg255
(dp714
S'analytic provider'
p715
(dp716
sg493
(dp717
ssg257
(dp718
g440
(dp719
ssg259
(dp720
g440
(dp721
ssg261
(dp722
g437
(dp723
ssg263
(dp724
g437
(dp725
ssg265
(dp726
g437
(dp727
ssg267
(dp728
g437
(dp729
ssg269
(dp730
g440
(dp731
ssg271
(dp732
g437
(dp733
ssg273
(dp734
g437
(dp735
ssg275
(dp736
g440
(dp737
ssg277
(dp738
g440
(dp739
ssg279
(dp740
g437
(dp741
ssg281
(dp742
g437
(dp743
ssg283
(dp744
g437
(dp745
ssg285
(dp746
g437
(dp747
ssg287
(dp748
g437
(dp749
ssg289
(dp750
g437
(dp751
ssg291
(dp752
g437
(dp753
ssg293
(dp754
S'analytic provider'
p755
(dp756
ssg295
(dp757
S'analytic provider'
p758
(dp759
ssg297
(dp760
g437
(dp761
ssg299
(dp762
S'analytic provider'
p763
(dp764
ssg301
(dp765
g437
(dp766
ssg303
(dp767
g437
(dp768
ssg305
(dp769
g440
(dp770
sg437
(dp771
ssg307
(dp772
S'google ads'
p773
(dp774
ssg309
(dp775
g437
(dp776
ssg311
(dp777
g437
(dp778
ssg313
(dp779
g440
(dp780
sg493
(dp781
ssg315
(dp782
g437
(dp783
ssg317
(dp784
g440
(dp785
ssg319
(dp786
g440
(dp787
ssg321
(dp788
g437
(dp789
ssg323
(dp790
g437
(dp791
ssg325
(dp792
g437
(dp793
ssg327
(dp794
g437
(dp795
ssg329
(dp796
g437
(dp797
ssg331
(dp798
g440
(dp799
ssg333
(dp800
g437
(dp801
ssg335
(dp802
g437
(dp803
ssg337
(dp804
g437
(dp805
ssg339
(dp806
S'analytic provider'
p807
(dp808
sg437
(dp809
ssg341
(dp810
g437
(dp811
ssg343
(dp812
g440
(dp813
ssg345
(dp814
g437
(dp815
ssg347
(dp816
g89
(dp817
g20
I1
ssg101
(dp818
ssg349
(dp819
S'analytic provider'
p820
(dp821
sg493
(dp822
ssg351
(dp823
g440
(dp824
ssg353
(dp825
S'analytic provider'
p826
(dp827
ssg355
(dp828
g440
(dp829
ssg357
(dp830
g440
(dp831
ssg359
(dp832
g437
(dp833
ssg361
(dp834
g437
(dp835
ssg363
(dp836
g437
(dp837
ssg365
(dp838
g437
(dp839
ssg367
(dp840
g437
(dp841
ssg369
(dp842
g437
(dp843
ssg371
(dp844
g440
(dp845
ssg373
(dp846
g437
(dp847
ssg375
(dp848
g437
(dp849
ssg377
(dp850
g437
(dp851
ssg379
(dp852
g437
(dp853
ssg381
(dp854
g437
(dp855
ssg383
(dp856
g255
(dp857
sg493
(dp858
ssg385
(dp859
g437
(dp860
ssg387
(dp861
g437
(dp862
ssg389
(dp863
g437
(dp864
ssg391
(dp865
S'analytic provider'
p866
(dp867
ssg393
(dp868
g440
(dp869
ssg395
(dp870
g474
(dp871
ssg397
(dp872
g437
(dp873
ssg399
(dp874
g440
(dp875
ssg401
(dp876
g440
(dp877
ssg403
(dp878
S'analytic provider'
p879
(dp880
sg437
(dp881
ssg405
(dp882
g437
(dp883
ssg407
(dp884
g427
(dp885
sS'search engine'
p886
(dp887
ssg409
(dp888
g101
(dp889
ssg411
(dp890
S'website'
p891
(dp892
sg437
(dp893
ssg413
(dp894
g395
(dp895
sg437
(dp896
ssg415
(dp897
g231
(dp898
ssg417
(dp899
g437
(dp900
ssg419
(dp901
g247
(dp902
g20
I1
sssg421
(dp903
g437
(dp904
ssg423
(dp905
S'analytic provider'
p906
(dp907
ssg425
(dp908
g437
(dp909
ssg427
(dp910
S'search engine'
p911
(dp912
ssg429
(dp913
g437
(dp914
sssS'_succ'
p915
(dp916
g12
(dp917
sg14
(dp918
sg16
(dp919
sg18
(dp920
sg21
(dp921
sg23
(dp922
g105
g554
sg71
g509
sS'instagram'
p923
g551
ssg25
(dp924
sg27
(dp925
sg29
(dp926
sg31
(dp927
sg33
(dp928
sg35
(dp929
sg37
(dp930
sg39
(dp931
sg41
(dp932
sg43
(dp933
g12
g438
sg16
g443
sg311
g778
sg25
g453
sg29
g458
sg31
g460
sg33
g462
sg35
g464
sg251
g710
sg369
g843
sg47
g479
sg49
g481
sg51
g483
sg53
g485
sg341
g811
sg57
g490
sg59
g494
sg65
g500
sg67
g502
sg69
g504
sg71
g510
sg21
g448
sg75
g514
sg37
g466
sg79
g518
sg81
g520
sg83
g522
sg85
g524
sg125
g575
sS'adjust'
p934
g534
sg97
g539
sg99
g541
sg101
g547
sg109
g558
sg111
g560
sg113
g563
sS'adobe marketing cloud'
p935
g565
sg117
g567
sg333
g801
sg195
g647
sg121
g571
sg123
g573
sg129
g579
sg131
g581
sg133
g583
sg39
g468
sg137
g587
sg157
g608
sg141
g591
sg77
g516
sg145
g595
sg149
g600
sg151
g602
sg119
g569
sg155
g606
sg213
g667
sg159
g610
sg161
g612
sg163
g614
sg167
g619
sg169
g621
sg171
g623
sg175
g627
sg177
g629
sg181
g633
sg285
g747
sg185
g637
sg191
g643
sg193
g645
sg281
g743
sg197
g651
sg199
g653
sg201
g655
sg203
g657
sg205
g659
sg207
g661
sg211
g665
sg215
g669
sg217
g671
sg219
g673
sg221
g678
sg143
g593
sg225
g682
sg227
g684
sg229
g686
sg239
g696
sg237
g694
sg235
g692
sg241
g699
sg283
g745
sg245
g703
sg249
g708
sg253
g713
sg255
g717
sg261
g723
sg263
g725
sg265
g727
sg267
g729
sg273
g735
sg183
g635
sg41
g470
sg287
g749
sg291
g753
sg297
g761
sg153
g604
sg301
g766
sg303
g768
sg305
g771
sg309
g776
sg313
g781
sg315
g783
sg321
g789
sg323
g791
sg325
g793
sg327
g795
sg329
g797
sg335
g803
sg337
g805
sS'kochava'
p936
g809
sg55
g488
sg345
g815
sg349
g822
sg361
g835
sg363
g837
sg365
g839
sg367
g841
sg289
g751
sg373
g847
sg375
g849
sg377
g851
sg379
g853
sg381
g855
sg383
g858
sg385
g860
sg387
g862
sg389
g864
sg271
g733
sg397
g873
sg279
g741
sS'appsflyer'
p937
g881
sg405
g883
sg187
g639
sg411
g893
sg413
g896
sg359
g833
sg417
g900
sg73
g512
sg421
g904
sg425
g909
sg429
g914
ssg45
(dp938
sg47
(dp939
sg49
(dp940
sg51
(dp941
sg53
(dp942
sg55
(dp943
sg57
(dp944
sg59
(dp945
sg61
(dp946
sg63
(dp947
sg65
(dp948
sg67
(dp949
sg69
(dp950
sg71
(dp951
g923
g549
ssg73
(dp952
sg75
(dp953
sg77
(dp954
sg79
(dp955
sg81
(dp956
sg83
(dp957
sg85
(dp958
sg87
(dp959
sg89
(dp960
g101
g544
sg14
g441
sg317
g785
sg18
g445
sg107
g556
sg63
g498
sg209
g663
sg331
g799
sg241
g698
sg339
g808
sg55
g487
sg221
g676
sg139
g589
sg343
g813
sg135
g585
sS'ironsource'
p961
g780
sg349
g821
sg93
g533
sg351
g824
sg353
g827
sg319
g787
sg357
g831
sg45
g477
sg243
g701
sg257
g719
sg179
g631
sg371
g845
sg253
g712
sg255
g716
sg347
g817
sg61
g496
sg355
g829
sg259
g721
sg165
g616
sg71
g507
sg173
g625
sg269
g731
sg391
g867
sg275
g737
sg277
g739
sg393
g869
sg399
g875
sg401
g877
sg403
g880
sg87
g526
sg293
g756
sg91
g530
sg295
g759
sg189
g641
sg299
g764
sg305
g770
sS'adobe analytics'
p962
g907
ssg91
(dp963
sg93
(dp964
sg95
(dp965
sg97
(dp966
sg99
(dp967
sg101
(dp968
S'crashlytics'
p969
g818
sS'google analytic'
p970
g446
sS'firebase'
p971
g617
sS'youtube'
p972
g889
sS'google ads'
p973
g562
ssg103
(dp974
sg105
(dp975
g221
g677
ssg107
(dp976
sg109
(dp977
sg111
(dp978
sg113
(dp979
S'google doubleclick'
p980
g774
ssg115
(dp981
sg117
(dp982
sg119
(dp983
sg121
(dp984
sg123
(dp985
sg125
(dp986
sg127
(dp987
g147
g598
ssg129
(dp988
sg131
(dp989
sg133
(dp990
sg135
(dp991
sg137
(dp992
sg139
(dp993
sg141
(dp994
sg143
(dp995
sg145
(dp996
sg147
(dp997
sg149
(dp998
sg151
(dp999
sg153
(dp1000
sg155
(dp1001
sg157
(dp1002
sg159
(dp1003
sg161
(dp1004
sg163
(dp1005
sg165
(dp1006
sg167
(dp1007
sg169
(dp1008
sg171
(dp1009
sg173
(dp1010
sg175
(dp1011
sg177
(dp1012
sg179
(dp1013
sg181
(dp1014
sg183
(dp1015
sg185
(dp1016
sg187
(dp1017
sg189
(dp1018
sg191
(dp1019
sg193
(dp1020
sg195
(dp1021
sg197
(dp1022
sg199
(dp1023
sg201
(dp1024
sg203
(dp1025
sg205
(dp1026
sg207
(dp1027
sg209
(dp1028
sg211
(dp1029
sg213
(dp1030
sg215
(dp1031
sg217
(dp1032
sg219
(dp1033
sg221
(dp1034
sg223
(dp1035
sg225
(dp1036
sg227
(dp1037
sg229
(dp1038
sg231
(dp1039
g127
g577
sS'third party'
p1040
g898
ssg233
(dp1041
g450
g706
sVnews provider
p1042
g537
sg43
g473
ssg235
(dp1043
sg237
(dp1044
sg239
(dp1045
sg241
(dp1046
sg243
(dp1047
sg245
(dp1048
sg247
(dp1049
g411
g892
sS'social network'
p1050
g451
sVsearch engine
p1051
g902
ssg249
(dp1052
sg251
(dp1053
sg253
(dp1054
sg255
(dp1055
g383
g857
ssg257
(dp1056
sg259
(dp1057
sg261
(dp1058
sg263
(dp1059
sg265
(dp1060
sg267
(dp1061
sg269
(dp1062
sg271
(dp1063
sg273
(dp1064
sg275
(dp1065
sg277
(dp1066
sg279
(dp1067
sg281
(dp1068
sg283
(dp1069
sg285
(dp1070
sg287
(dp1071
sg289
(dp1072
sg291
(dp1073
sg293
(dp1074
sg295
(dp1075
sg297
(dp1076
sg299
(dp1077
sg301
(dp1078
sg303
(dp1079
sg305
(dp1080
sg307
(dp1081
sg309
(dp1082
sg311
(dp1083
sg313
(dp1084
sg315
(dp1085
sg317
(dp1086
sg319
(dp1087
sg321
(dp1088
sg323
(dp1089
sg325
(dp1090
sg327
(dp1091
sg329
(dp1092
sg331
(dp1093
sg333
(dp1094
sg335
(dp1095
sg337
(dp1096
sg339
(dp1097
sg341
(dp1098
sg343
(dp1099
sg345
(dp1100
sg347
(dp1101
sg349
(dp1102
g197
g650
ssg351
(dp1103
sg353
(dp1104
sg355
(dp1105
sg357
(dp1106
sg359
(dp1107
sg361
(dp1108
sg363
(dp1109
sg365
(dp1110
sg367
(dp1111
sg369
(dp1112
sg371
(dp1113
sg373
(dp1114
sg375
(dp1115
sg377
(dp1116
sg379
(dp1117
sg381
(dp1118
sg383
(dp1119
sg385
(dp1120
sg387
(dp1121
sg389
(dp1122
sg391
(dp1123
sg393
(dp1124
sg395
(dp1125
g413
g895
ssg397
(dp1126
sg399
(dp1127
sg401
(dp1128
sg403
(dp1129
sg405
(dp1130
sg407
(dp1131
sg409
(dp1132
sg411
(dp1133
S'amazon ads'
p1134
g492
ssg413
(dp1135
sg415
(dp1136
g223
g680
sg89
g528
sg437
g475
sVsubsidiary
p1137
g456
sg233
g690
sg395
g871
ssg417
(dp1138
sg419
(dp1139
g407
g887
sg101
g546
sg427
g912
ssg421
(dp1140
sg423
(dp1141
sg425
(dp1142
sg427
(dp1143
S'bing'
p1144
g885
ssg429
(dp1145
ssS'_adj'
p1146
g916
sS'adjlist_outer_dict_factory'
p1147
g7
sb.